
Discarded input sections

 .text          0x00000000        0x0 OWR.o
 .data          0x00000000        0x0 OWR.o
 .bss           0x00000000        0x0 OWR.o
 .text          0x00000000        0x0 StateManager.o
 .data          0x00000000        0x0 StateManager.o
 .bss           0x00000000        0x0 StateManager.o
 .text          0x00000000        0x0 common.o
 .data          0x00000000        0x0 common.o
 .bss           0x00000000        0x0 common.o
 .text._ZN3mod6common14GetCurrentAreaEv
                0x00000000       0x1c common.o
 .text._ZN3mod6common13GetCurrentMapEv
                0x00000000       0x1c common.o
 .text._ZN3mod6common11GetFilenameEv
                0x00000000       0x1c common.o
 .text._ZN3mod6common16GetStorySequenceEv
                0x00000000       0x20 common.o
 .text._ZN3mod6common14GetPitSequenceEv
                0x00000000       0x24 common.o
 .text._ZN3mod6common17GetSavedFlagValueEi
                0x00000000       0x40 common.o
 .text._ZN3mod6common21HasKeyItemInInventoryEs
                0x00000000       0x3c common.o
 .text._ZN3mod6common25GetBattleWindowDataOffsetEv
                0x00000000       0x1c common.o
 .text._ZN3mod6common21GetStatusWindowHeightEv
                0x00000000       0x24 common.o
 .data._ZN3mod6common29kUnknownStatusWindowStructPtrE
                0x00000000        0x4 common.o
 .data._ZN3mod6common10kBattlePtrE
                0x00000000        0x4 common.o
 .data._ZN3mod6common9kPouchPtrE
                0x00000000        0x4 common.o
 .data._ZN3mod6common12kSaveDataPtrE
                0x00000000        0x4 common.o
 .rodata._ZN3mod6common32kUltraHammerChestDespawnIdOffsetE
                0x00000000        0x4 common.o
 .rodata._ZN3mod6common27kObjectCollectionExprOffsetE
                0x00000000        0x4 common.o
 .rodata._ZN3mod6common27kObjectChestScriptPtrOffsetE
                0x00000000        0x4 common.o
 .rodata._ZN3mod6common33kMujModuleFlavioDesiredItemOffsetE
                0x00000000        0x4 common.o
 .rodata._ZN3mod6common36kJinModuleAtomicBooItemGswfSetOffsetE
                0x00000000        0x4 common.o
 .rodata._ZN3mod6common39kJinModuleAtomicBooItemObjectFlagOffsetE
                0x00000000        0x4 common.o
 .rodata._ZN3mod6common32kPitModuleCharlietonChanceOffsetE
                0x00000000        0x4 common.o
 .rodata._ZN3mod6common22kPitModuleNpcArrOffsetE
                0x00000000        0x4 common.o
 .rodata._ZN3mod6common23kSavedWordFlagBaseValueE
                0x00000000        0x4 common.o
 .data._ZN3mod6common20kPiantaParlorItemArrE
                0x00000000        0x4 common.o
 .data._ZN3mod6common21kPitCharlietonItemArrE
                0x00000000        0x4 common.o
 .data._ZN3mod6common12kHowzItemArrE
                0x00000000        0x4 common.o
 .data._ZN3mod6common18kCharlietonItemArrE
                0x00000000        0x4 common.o
 .data._ZN3mod6common14kDazzleItemArrE
                0x00000000        0x4 common.o
 .data._ZN3mod6common20kSuperguardFramesArrE
                0x00000000        0x4 common.o
 .data._ZN3mod6common15kGuardFramesArrE
                0x00000000        0x4 common.o
 .data._ZN3mod6common25kSuperChargePartnerParamsE
                0x00000000        0x4 common.o
 .data._ZN3mod6common18kSuperChargeParamsE
                0x00000000        0x4 common.o
 .data._ZN3mod6common19kPiercingBlowParamsE
                0x00000000        0x4 common.o
 .data._ZN3mod6common18kHammerThrowParamsE
                0x00000000        0x4 common.o
 .data._ZN3mod6common17kKoopaCurseParamsE
                0x00000000        0x4 common.o
 .data._ZN3mod6common15kTradeOffParamsE
                0x00000000        0x4 common.o
 .data._ZN3mod6common17kGulpRecoilParamsE
                0x00000000        0x4 common.o
 .data._ZN3mod6common24kUltraHammerRecoilParamsE
                0x00000000        0x4 common.o
 .data._ZN3mod6common24kSuperHammerRecoilParamsE
                0x00000000        0x4 common.o
 .data._ZN3mod6common12kItemDataArrE
                0x00000000        0x4 common.o
 .data._ZN3mod6common8kNextMapE
                0x00000000        0x4 common.o
 .rodata.cst4   0x00000000        0x4 common.o
 .text          0x00000000        0x0 errorHandling.o
 .data          0x00000000        0x0 errorHandling.o
 .bss           0x00000000        0x0 errorHandling.o
 .text          0x00000000        0x0 gamePatches.o
 .data          0x00000000        0x0 gamePatches.o
 .bss           0x00000000        0x0 gamePatches.o
 .text          0x00000000        0x0 mod.o
 .data          0x00000000        0x0 mod.o
 .bss           0x00000000        0x0 mod.o
 .text          0x00000000        0x0 printf.o
 .data          0x00000000        0x0 printf.o
 .bss           0x00000000        0x0 printf.o
 .text          0x00000000        0x0 relmgr.o
 .data          0x00000000        0x0 relmgr.o
 .bss           0x00000000        0x0 relmgr.o
 .text          0x00000000        0x0 util.o
 .data          0x00000000        0x0 util.o
 .bss           0x00000000        0x0 util.o
 .text._ZN3mod4util22checkButtonsEveryFrameEj
                0x00000000       0x30 util.o
 .text          0x00000000        0x0 main.o
 .data          0x00000000        0x0 main.o
 .bss           0x00000000        0x0 main.o
 .text          0x00000000        0x0 cxx.o
 .data          0x00000000        0x0 cxx.o
 .bss           0x00000000        0x0 cxx.o
 .text          0x00000000        0x0 patch.o
 .data          0x00000000        0x0 patch.o
 .bss           0x00000000        0x0 patch.o
 .text._ZN3mod5patch17clear_DC_IC_CacheEPvj
                0x00000000       0x3c patch.o
 .text._ZN3mod5patch15replaceEvtInstrEPit
                0x00000000        0x8 patch.o
 .text._ZN3mod5patch14writeEvtBranchEPiPKib
                0x00000000       0x1c patch.o
 .text._ZN3mod5patch15writeBranchMainEPvS1_j
                0x00000000       0x18 patch.o
 .text._ZN3mod5patch11writeBranchEPvS1_
                0x00000000        0x8 patch.o
 .text._ZN3mod5patch21writeStandardBranchesEPvS1_S1_
                0x00000000       0x3c patch.o
 .text._ZN3mod5patch13writeBranchBLEPvS1_
                0x00000000        0xc patch.o
 .text._ZN3mod5patch10writePatchEPvPKvj
                0x00000000       0x5c patch.o
 .text._ZN3mod5patch10writePatchEPvPKvS3_
                0x00000000        0x8 patch.o
 .text._ZN3mod5patch10writePatchEPvj
                0x00000000       0x2c patch.o
 .text._ZN3mod5patch15writeBranchPairEPvS1_S1_S1_
                0x00000000       0x40 patch.o
 .text._ZN3mod5patch15writeBranchPairEPvS1_S1_
                0x00000000       0x3c patch.o
 .text._ZN3mod5patch17writeIntWithCacheEPvj
                0x00000000        0xc patch.o
 .text          0x00000000        0x0 rel.o
 .data          0x00000000        0x0 rel.o
 .bss           0x00000000        0x0 rel.o
 .text          0x00000000        0x0 CrashScreenDecrementYPos.o
 .data          0x00000000        0x0 CrashScreenDecrementYPos.o
 .bss           0x00000000        0x0 CrashScreenDecrementYPos.o
 .data          0x00000000        0x0 FixBlooperCrash1.o
 .bss           0x00000000        0x0 FixBlooperCrash1.o
 .data          0x00000000        0x0 FixBlooperCrash2.o
 .bss           0x00000000        0x0 FixBlooperCrash2.o
 .data          0x00000000        0x0 PreventDiaryTextboxSelection.o
 .bss           0x00000000        0x0 PreventDiaryTextboxSelection.o
 .data          0x00000000        0x0 asm_main.o
 .bss           0x00000000        0x0 asm_main.o
 .data          0x00000000        0x0 restfpr_x.o
 .bss           0x00000000        0x0 restfpr_x.o
 .data          0x00000000        0x0 restgpr_x.o
 .bss           0x00000000        0x0 restgpr_x.o
 .text          0x00000000       0x7c patch_ih.o
 .data          0x00000000        0x0 patch_ih.o
 .bss           0x00000000        0x0 patch_ih.o

Memory Configuration

Name             Origin             Length             Attributes
*default*        0x00000000         0xffffffff

Linker script and memory map

                0x80003100                        . = 0x80003100

.init
 *crt0.o(*.init)
 *(.init)

.plt
 *(.plt)

.interp
 *(.interp)

.hash
 *(.hash)

.dynsym
 *(.dynsym)

.dynstr
 *(.dynstr)

.gnu.version
 *(.gnu.version)

.gnu.version_d
 *(.gnu.version_d)

.gnu.version_r
 *(.gnu.version_r)

.rel.init
 *(.rel.init)

.rela.init
 *(.rela.init)

.rel.text
 *(.rel.text .rel.text.* .rel.gnu.linkonce.t.*)

.rela.text
 *(.rela.text .rela.text.* .rela.gnu.linkonce.t.*)

.rel.fini
 *(.rel.fini)

.rela.fini
 *(.rela.fini)

.rel.rodata
 *(.rel.rodata .rel.rodata.* .rel.gnu.linkonce.r.*)

.rela.rodata
 *(.rela.rodata .rela.rodata.* .rela.gnu.linkonce.r.*)

.rel.data
 *(.rel.data .rel.data.* .rel.gnu.linkonce.d.*)

.rela.data
 *(.rela.data .rela.data.* .rela.gnu.linkonce.d.*)

.rel.tdata
 *(.rel.tdata .rel.tdata.* .rel.gnu.linkonce.td.*)

.rela.tdata
 *(.rela.tdata .rela.tdata.* .rela.gnu.linkonce.td.*)

.rel.tbss
 *(.rel.tbss .rel.tbss.* .rel.gnu.linkonce.tb.*)

.rela.tbss
 *(.rela.tbss .rela.tbss.* .rela.gnu.linkonce.tb.*)

.rel.ctors
 *(.rel.ctors)

.rela.ctors
 *(.rela.ctors)

.rel.dtors
 *(.rel.dtors)

.rela.dtors
 *(.rela.dtors)

.rel.got
 *(.rel.got)

.rela.got
 *(.rela.got)

.rela.got1
 *(.rela.got1)

.rela.got2
 *(.rela.got2)

.rel.sdata
 *(.rel.sdata .rel.sdata.* .rel.gnu.linkonce.s.*)

.rela.sdata
 *(.rela.sdata .rela.sdata.* .rela.gnu.linkonce.s.*)

.rel.sbss
 *(.rel.sbss .rel.sbss.* .rel.gnu.linkonce.sb.*)

.rela.sbss
 *(.rela.sbss .rela.sbss.* .rel.gnu.linkonce.sb.*)

.rel.sdata2
 *(.rel.sdata2 .rel.sdata2.* .rel.gnu.linkonce.s2.*)

.rela.sdata2
 *(.rela.sdata2 .rela.sdata2.* .rela.gnu.linkonce.s2.*)

.rel.sbss2
 *(.rel.sbss2 .rel.sbss2.* .rel.gnu.linkonce.sb2.*)

.rela.sbss2
 *(.rela.sbss2 .rela.sbss2.* .rela.gnu.linkonce.sb2.*)

.rel.bss
 *(.rel.bss .rel.bss.* .rel.gnu.linkonce.b.*)

.rela.bss
 *(.rela.bss .rela.bss.* .rela.gnu.linkonce.b.*)

.rel.plt
 *(.rel.plt)

.rela.plt
 *(.rela.plt)

.text           0x80003100     0x2380
 *(.text)
 .text          0x80003100        0x8 FixBlooperCrash1.o
                0x80003100                asmFixBlooperCrash1
 .text          0x80003108       0x14 FixBlooperCrash2.o
                0x80003108                asmFixBlooperCrash2
 .text          0x8000311c       0x10 PreventDiaryTextboxSelection.o
                0x8000311c                asmPreventDiaryTextboxSelection
 .text          0x8000312c      0x2d0 asm_main.o
                0x8000312c                bMapGXArrInject
                0x80003138                bMapGXArrInjectReturn
                0x8000313c                bMapGXArrIncrement
                0x80003144                bMapGXArrIncrementReturn
                0x80003148                bMapGXChSplit
                0x80003154                bMapGXChSplitReturn
                0x80003158                bWinLogArrInject
                0x80003164                bWinLogArrInjectReturn
                0x80003168                bWinLogArrIncrement
                0x80003170                bWinLogArrIncrementReturn
                0x80003174                bChapterClearCheck
                0x800031bc                bJohoyaSeqAddition
                0x800031f4                bPrintPartyAddErrorFix
                0x80003230                bPrintPartyAddErrorFixReturn
                0x80003234                bPrintPartyErrorFix
                0x80003270                bPrintPartyErrorFixReturn
                0x80003274                bKururingFloorCapture
                0x8000327c                bKururingFloorCaptureReturn
                0x80003280                bKururingFloorRelease
                0x80003288                bKururingFloorReleaseReturn
                0x8000328c                bPowerupblkCapture
                0x800032a4                bPowerupblkCaptureReturn
                0x800032a8                bPowerupblkRelease
                0x800032b0                bPowerupblkReleaseReturn
                0x800032b4                bPeachPointer
                0x8000332c                bPeachReturn
                0x80003330                bShopFlagCheck
                0x8000333c                bShopFlagCheckReturn
                0x80003340                win_log_mapGX_arr
 .text          0x800033fc       0x58 restfpr_x.o
                0x800033fc                _restfpr_14_x
                0x80003400                _restfpr_15_x
                0x80003404                _restfpr_16_x
                0x80003408                _restfpr_17_x
                0x8000340c                _restfpr_18_x
                0x80003410                _restfpr_19_x
                0x80003414                _restfpr_20_x
                0x80003418                _restfpr_21_x
                0x8000341c                _restfpr_22_x
                0x80003420                _restfpr_23_x
                0x80003424                _restfpr_24_x
                0x80003428                _restfpr_25_x
                0x8000342c                _restfpr_26_x
                0x80003430                _restfpr_27_x
                0x80003434                _restfpr_28_x
                0x80003438                _restfpr_29_x
                0x8000343c                _restfpr_30_x
                0x80003440                _restfpr_31_x
 .text          0x80003454       0x58 restgpr_x.o
                0x80003454                _restgpr_14_x
                0x80003458                _restgpr_15_x
                0x8000345c                _restgpr_16_x
                0x80003460                _restgpr_17_x
                0x80003464                _restgpr_18_x
                0x80003468                _restgpr_19_x
                0x8000346c                _restgpr_20_x
                0x80003470                _restgpr_21_x
                0x80003474                _restgpr_22_x
                0x80003478                _restgpr_23_x
                0x8000347c                _restgpr_24_x
                0x80003480                _restgpr_25_x
                0x80003484                _restgpr_26_x
                0x80003488                _restgpr_27_x
                0x8000348c                _restgpr_28_x
                0x80003490                _restgpr_29_x
                0x80003494                _restgpr_30_x
                0x80003498                _restgpr_31_x
 *(.text.*)
 *fill*         0x800034ac        0x0 00000000
 .text._ZN3mod3owr3OWR12SequenceInitEv
                0x800034ac      0x130 OWR.o
                0x800034ac                _ZN3mod3owr3OWR12SequenceInitEv
 .text._ZN3mod3owr13checkIfInGameEv
                0x800035dc       0x64 OWR.o
                0x800035dc                _ZN3mod3owr13checkIfInGameEv
 .text._ZN3mod3owr3OWR12HomewardWarpEv
                0x80003640       0x88 OWR.o
                0x80003640                _ZN3mod3owr3OWR12HomewardWarpEv
 .text._ZN3mod3owr3OWR12RecieveItemsEv
                0x800036c8       0x5c OWR.o
                0x800036c8                _ZN3mod3owr3OWR12RecieveItemsEv
 .text._ZN3mod3owr13seqSetSeqHookEN4ttyd6seqdrv8SeqIndexEPKcS5_
                0x80003724      0x20c OWR.o
                0x80003724                _ZN3mod3owr13seqSetSeqHookEN4ttyd6seqdrv8SeqIndexEPKcS5_
 .text._ZN3mod3owr13msgSearchHookEPKc
                0x80003930      0x5f8 OWR.o
                0x80003930                _ZN3mod3owr13msgSearchHookEPKc
 .text._ZN3mod3owr16pouchGetItemHookEi
                0x80003f28      0x1ec OWR.o
                0x80003f28                _ZN3mod3owr16pouchGetItemHookEi
 .text._ZN3mod3owr21partySetForceMoveHookEPN4ttyd5party10PartyEntryEfff
                0x80004114       0x8c OWR.o
                0x80004114                _ZN3mod3owr21partySetForceMoveHookEPN4ttyd5party10PartyEntryEfff
 .text._ZN3mod3owr19evtMarioSetPoseHookEPN4ttyd6evtmgr8EvtEntryEb
                0x800041a0       0x6c OWR.o
                0x800041a0                _ZN3mod3owr19evtMarioSetPoseHookEPN4ttyd6evtmgr8EvtEntryEb
 .text._ZN3mod3owr3OWR6UpdateEv
                0x8000420c       0x38 OWR.o
                0x8000420c                _ZN3mod3owr3OWR6UpdateEv
 .text._ZN3mod3owr3OWR14OnModuleLoadedEP12OSModuleInfo
                0x80004244       0x84 OWR.o
                0x80004244                _ZN3mod3owr3OWR14OnModuleLoadedEP12OSModuleInfo
 .text._ZN3mod3owr10OSLinkHookEP12OSModuleInfoPv
                0x800042c8       0x54 OWR.o
                0x800042c8                _ZN3mod3owr10OSLinkHookEP12OSModuleInfoPv
 .text._ZN3mod3owr3OWR10DrawStringEPKcffjf
                0x8000431c       0xc8 OWR.o
                0x8000431c                _ZN3mod3owr3OWR10DrawStringEPKcffjf
 .text._ZN3mod3owr12StateManagerC2Ev
                0x800043e4       0x18 StateManager.o
                0x800043e4                _ZN3mod3owr12StateManagerC2Ev
                0x800043e4                _ZN3mod3owr12StateManagerC1Ev
 .text._ZN3mod3owr12StateManager4InitEv
                0x800043fc       0x18 StateManager.o
                0x800043fc                _ZN3mod3owr12StateManager4InitEv
 .text._ZL27checkIndividualStandardHeapPKN2gc2os9ChunkInfoE
                0x80004414       0x64 errorHandling.o
 .text._ZL24checkIndividualSmartHeapPKN4ttyd6memory19SmartAllocationDataE
                0x80004478       0x64 errorHandling.o
 .text._ZL22checkIndividualMapHeapPKN4ttyd6memory13MapAllocEntryE
                0x800044dc       0x50 errorHandling.o
 .text._ZL21initStandardHeapErrorPKvib
                0x8000452c       0x94 errorHandling.o
 .text._ZL18initSmartHeapErrorPKvb
                0x800045c0       0x8c errorHandling.o
 .text._ZL16initMapHeapErrorPKvtb
                0x8000464c       0xa4 errorHandling.o
 .text._ZN18HeapCorruptionInfo10drawBufferEv
                0x800046f0       0x98 errorHandling.o
                0x800046f0                _ZN18HeapCorruptionInfo10drawBufferEv
 .text._ZN21NpcNameToPtrErrorInfo16drawErrorMessageEv
                0x80004788       0x9c errorHandling.o
                0x80004788                _ZN21NpcNameToPtrErrorInfo16drawErrorMessageEv
 .text._ZN21AnimPoseMainErrorInfo16drawErrorMessageEv
                0x80004824       0x9c errorHandling.o
                0x80004824                _ZN21AnimPoseMainErrorInfo16drawErrorMessageEv
 .text._Z10checkHeapsv
                0x800048c0      0x110 errorHandling.o
                0x800048c0                _Z10checkHeapsv
 .text._Z17drawErrorMessagesv
                0x800049d0       0x74 errorHandling.o
                0x800049d0                _Z17drawErrorMessagesv
 .text._Z25checkForNpcNameToPtrErrorPKc
                0x80004a44       0x6c errorHandling.o
                0x80004a44                _Z25checkForNpcNameToPtrErrorPKc
 .text._Z24preventAnimPoseMainCrashi
                0x80004ab0       0x50 errorHandling.o
                0x80004ab0                _Z24preventAnimPoseMainCrashi
 .text._Z12autoMashTextN2gc3pad5PadIdE
                0x80004b00       0x48 gamePatches.o
                0x80004b00                _Z12autoMashTextN2gc3pad5PadIdE
 .text.cFixBlooperCrash1
                0x80004b48       0x38 gamePatches.o
                0x80004b48                cFixBlooperCrash1
 .text._Z22fixPouchInitMemoryLeakij
                0x80004b80       0x4c gamePatches.o
                0x80004b80                _Z22fixPouchInitMemoryLeakij
 .text.cPreventDiaryTextboxOptionSelection
                0x80004bcc       0x58 gamePatches.o
                0x80004bcc                cPreventDiaryTextboxOptionSelection
 .text._Z14fixMapProblemsv
                0x80004c24       0xe8 gamePatches.o
                0x80004c24                _Z14fixMapProblemsv
 .text._ZN3mod4drawEN4ttyd7dispdrv8CameraIdEPv
                0x80004d0c        0x4 mod.o
                0x80004d0c                _ZN3mod4drawEN4ttyd7dispdrv8CameraIdEPv
 .text.startup._ZN3mod4mainEv
                0x80004d10        0xc mod.o
                0x80004d10                _ZN3mod4mainEv
 .text._ZN3mod4exitEv
                0x80004d1c        0x4 mod.o
                0x80004d1c                _ZN3mod4exitEv
 .text._ZN3mod11updateEarlyEv
                0x80004d20       0x58 mod.o
                0x80004d20                _ZN3mod11updateEarlyEv
 .text.vsnprintf
                0x80004d78       0x70 printf.o
                0x80004d78                vsnprintf
 .text.snprintf
                0x80004de8       0x7c printf.o
                0x80004de8                snprintf
 .text._ZN6RelMgr7loadRelEPKci
                0x80004e64      0x10c relmgr.o
                0x80004e64                _ZN6RelMgr7loadRelEPKci
 .text._ZN6RelMgr9unloadRelEv
                0x80004f70       0x50 relmgr.o
                0x80004f70                _ZN6RelMgr9unloadRelEv
 .text._ZN6RelMgr7linkRelEv
                0x80004fc0       0x70 relmgr.o
                0x80004fc0                _ZN6RelMgr7linkRelEv
 .text._ZN6RelMgr9unlinkRelEv
                0x80005030       0x68 relmgr.o
                0x80005030                _ZN6RelMgr9unlinkRelEv
 .text._ZN6RelMgr10runInitRelEv
                0x80005098       0x6c relmgr.o
                0x80005098                _ZN6RelMgr10runInitRelEv
 .text._ZN3mod4util16checkButtonComboEj
                0x80005104       0x4c util.o
                0x80005104                _ZN3mod4util16checkButtonComboEj
 .text._ZN3mod4util26checkButtonComboEveryFrameEj
                0x80005150       0x34 util.o
                0x80005150                _ZN3mod4util26checkButtonComboEveryFrameEj
 .text._ZN3mod4util10ptrIsValidEPv
                0x80005184       0x30 util.o
                0x80005184                _ZN3mod4util10ptrIsValidEPv
 .text._ZN3mod4util10intToFloatEi
                0x800051b4       0x30 util.o
                0x800051b4                _ZN3mod4util10intToFloatEi
 .text._ZN3mod4util25getTextMultilineIncrementEPKcfj
                0x800051e4       0x4c util.o
                0x800051e4                _ZN3mod4util25getTextMultilineIncrementEPKcfj
 .text._Z12setShopFlagsPN4ttyd6evtmgr8EvtEntryEb
                0x80005230       0x8c main.o
                0x80005230                _Z12setShopFlagsPN4ttyd6evtmgr8EvtEntryEb
 .text._Z18checkChapterClearsPN4ttyd6evtmgr8EvtEntryEb
                0x800052bc       0x5c main.o
                0x800052bc                _Z18checkChapterClearsPN4ttyd6evtmgr8EvtEntryEb
 .text.checkShopFlag
                0x80005318       0x84 main.o
                0x80005318                checkShopFlag
 .text._Z11allocMemoryj
                0x8000539c        0xc cxx.o
                0x8000539c                _Z11allocMemoryj
 .text._Z10freeMemoryPv
                0x800053a8        0xc cxx.o
                0x800053a8                _Z10freeMemoryPv
 .text._prolog  0x800053b4       0x5c rel.o
                0x800053b4                _prolog
 .text._epilog  0x80005410       0x50 rel.o
                0x80005410                _epilog
 .text._unresolved
                0x80005460        0x4 rel.o
                0x80005460                _unresolved
 *(.gnu.warning)
 *(.gnu.linkonce.t.*)
                0x80005480                        . = ALIGN (0x20)
 *fill*         0x80005464       0x1c 00000000

.text._ZN18HeapCorruptionInfo10initBufferEv
                0x00000000       0x34
 .text._ZN18HeapCorruptionInfo10initBufferEv
                0x00000000       0x34 errorHandling.o
                0x00000000                _ZN18HeapCorruptionInfo10initBufferEv

.fini           0x00000034        0xc
 *(.fini)
                0x00000040                        . = ALIGN (0x20)
 *fill*         0x00000034        0xc 00000000
                [!provide]                        PROVIDE (__etext = .)
                [!provide]                        PROVIDE (_etext = .)
                [!provide]                        PROVIDE (etext = .)

.rodata         0x00000040      0x806
 *(.rodata)
 *(.rodata.*)
 .rodata._ZN3mod3owr13seqSetSeqHookEN4ttyd6seqdrv8SeqIndexEPKcS5_.str1.1
                0x00000040       0x55 OWR.o
 .rodata._ZN3mod3owr13msgSearchHookEPKc.str1.1
                0x00000095      0x565 OWR.o
 *fill*         0x000005fa        0x2 
 .rodata._ZN3mod3owr16pouchGetItemHookEi
                0x000005fc       0x10 OWR.o
 .rodata._ZL8GSWF_ARR
                0x0000060c       0x20 OWR.o
 .rodata.cst4   0x0000062c        0x4 OWR.o
 .rodata._ZL21initStandardHeapErrorPKvib.str1.1
                0x00000630       0x30 errorHandling.o
 .rodata._ZL18initSmartHeapErrorPKvb.str1.1
                0x00000660       0x23 errorHandling.o
 .rodata._ZL16initMapHeapErrorPKvtb.str1.1
                0x00000683       0x2b errorHandling.o
 .rodata._ZN21NpcNameToPtrErrorInfo16drawErrorMessageEv.str1.1
                0x000006ae       0x1f errorHandling.o
 .rodata._ZN21AnimPoseMainErrorInfo16drawErrorMessageEv.str1.1
                0x000006cd       0x1f errorHandling.o
 .rodata.cst4   0x000006ec       0x10 errorHandling.o
 .rodata.cPreventDiaryTextboxOptionSelection.str1.1
                0x000006fc       0x19 gamePatches.o
 .rodata._Z14fixMapProblemsv.str1.1
                0x00000715       0x1e gamePatches.o
 *fill*         0x00000733        0x1 
 .rodata.cst4   0x00000734        0x4 mod.o
 .rodata._ZN6RelMgr7loadRelEPKci.str1.1
                0x00000738       0x14 relmgr.o
 .rodata._ZN6RelMgr10runInitRelEv.str1.1
                0x0000074c        0x5 relmgr.o
 *fill*         0x00000751        0x3 
 .rodata.cst4   0x00000754        0x8 util.o
 .rodata._ZL5goods
                0x0000075c       0x28 main.o
 .rodata.str1.1
                0x00000784       0xc2 main.o
 *(.gnu.linkonce.r.*)

.rodata1
 *(.rodata1)

.sdata2         0x00000846        0x0
                [!provide]                        PROVIDE (_SDA2_BASE_ = .)
 *(.sdata2)
 *(.sdata2.*)
 *(.gnu.linkonce.s2.*)

.sbss2
 *(.sbss2)
 *(.sbss2.*)
 *(.gnu.linkonce.sb2.*)
                0x00000848                        . = ALIGN (0x4)
                [!provide]                        PROVIDE (__preinit_array_start = .)

.preinit_array
 *(.preinit_array)
                [!provide]                        PROVIDE (__preinit_array_end = .)
                [!provide]                        PROVIDE (__init_array_start = .)

.init_array
 *(.init_array)
                [!provide]                        PROVIDE (__init_array_end = .)
                [!provide]                        PROVIDE (__fini_array_start = .)

.fini_array
 *(.fini_array)
                [!provide]                        PROVIDE (__fini_array_end = .)

.data           0x00000848       0xb8
 *(.data)
 *(.data.*)
 .data._ZN3mod3owr22main_buy_evt_hook_sizeE
                0x00000848        0x2 main.o
                0x00000848                _ZN3mod3owr22main_buy_evt_hook_sizeE
 *fill*         0x0000084a        0x2 
 .data._ZN3mod3owr17main_buy_evt_hookE
                0x0000084c       0x10 main.o
                0x0000084c                _ZN3mod3owr17main_buy_evt_hookE
 .data._ZN3mod3owr16main_buy_evt_evtE
                0x0000085c       0x50 main.o
                0x0000085c                _ZN3mod3owr16main_buy_evt_evtE
 .data._ZN3mod3owr23boatModeNameDescriptionE
                0x000008ac        0x4 main.o
                0x000008ac                _ZN3mod3owr23boatModeNameDescriptionE
 .data._ZN3mod3owr23tubeModeNameDescriptionE
                0x000008b0        0x4 main.o
                0x000008b0                _ZN3mod3owr23tubeModeNameDescriptionE
 .data._ZN3mod3owr24paperModeNameDescriptionE
                0x000008b4        0x4 main.o
                0x000008b4                _ZN3mod3owr24paperModeNameDescriptionE
 .data._ZN3mod3owr24planeModeNameDescriptionE
                0x000008b8        0x4 main.o
                0x000008b8                _ZN3mod3owr24planeModeNameDescriptionE
 .data._ZN3mod3owr23tenCoinsNameDescriptionE
                0x000008bc        0x4 main.o
                0x000008bc                _ZN3mod3owr23tenCoinsNameDescriptionE
 .data._ZN3mod3owr21apItemNameDescriptionE
                0x000008c0        0x4 main.o
                0x000008c0                _ZN3mod3owr21apItemNameDescriptionE
 .data._ZN3mod3owr15mowzDescriptionE
                0x000008c4        0x4 main.o
                0x000008c4                _ZN3mod3owr15mowzDescriptionE
 .data._ZN3mod3owr8mowzNameE
                0x000008c8        0x4 main.o
                0x000008c8                _ZN3mod3owr8mowzNameE
 .data._ZN3mod3owr18bobberyDescriptionE
                0x000008cc        0x4 main.o
                0x000008cc                _ZN3mod3owr18bobberyDescriptionE
 .data._ZN3mod3owr11bobberyNameE
                0x000008d0        0x4 main.o
                0x000008d0                _ZN3mod3owr11bobberyNameE
 .data._ZN3mod3owr17vivianDescriptionE
                0x000008d4        0x4 main.o
                0x000008d4                _ZN3mod3owr17vivianDescriptionE
 .data._ZN3mod3owr10vivianNameE
                0x000008d8        0x4 main.o
                0x000008d8                _ZN3mod3owr10vivianNameE
 .data._ZN3mod3owr16yoshiDescriptionE
                0x000008dc        0x4 main.o
                0x000008dc                _ZN3mod3owr16yoshiDescriptionE
 .data._ZN3mod3owr9yoshiNameE
                0x000008e0        0x4 main.o
                0x000008e0                _ZN3mod3owr9yoshiNameE
 .data._ZN3mod3owr18flurrieDescriptionE
                0x000008e4        0x4 main.o
                0x000008e4                _ZN3mod3owr18flurrieDescriptionE
 .data._ZN3mod3owr11flurrieNameE
                0x000008e8        0x4 main.o
                0x000008e8                _ZN3mod3owr11flurrieNameE
 .data._ZN3mod3owr16koopsDescriptionE
                0x000008ec        0x4 main.o
                0x000008ec                _ZN3mod3owr16koopsDescriptionE
 .data._ZN3mod3owr9koopsNameE
                0x000008f0        0x4 main.o
                0x000008f0                _ZN3mod3owr9koopsNameE
 .data._ZN3mod3owr20goombellaDescriptionE
                0x000008f4        0x4 main.o
                0x000008f4                _ZN3mod3owr20goombellaDescriptionE
 .data._ZN3mod3owr13goombellaNameE
                0x000008f8        0x4 main.o
                0x000008f8                _ZN3mod3owr13goombellaNameE
 *(.gnu.linkonce.d.*)
                0x00000900                        . = ALIGN (0x20)
 *fill*         0x000008fc        0x4 

.data1
 *(.data1)

.tdata
 *(.tdata .tdata.* .gnu.linkonce.td.*)

.tbss
 *(.tbss .tbss.* .gnu.linkonce.tb.*)
 *(.tcommon)

.eh_frame       0x00000900      0x968
 *(.eh_frame)
 .eh_frame      0x00000900      0x250 OWR.o
 .eh_frame      0x00000b50       0x3c StateManager.o
 .eh_frame      0x00000b8c        0x0 common.o
                                 0xc8 (size before relaxing)
 .eh_frame      0x00000b8c      0x24c errorHandling.o
 .eh_frame      0x00000dd8       0xec gamePatches.o
 .eh_frame      0x00000ec4       0x70 mod.o
 .eh_frame      0x00000f34       0x5c printf.o
 .eh_frame      0x00000f90       0xe0 relmgr.o
 .eh_frame      0x00001070       0xb4 util.o
                                 0xd8 (size before relaxing)
 .eh_frame      0x00001124       0x8c main.o
 .eh_frame      0x000011b0       0x3c cxx.o
 .eh_frame      0x000011ec        0x0 patch.o
                                0x18c (size before relaxing)
 .eh_frame      0x000011ec       0x7c rel.o

.gcc_except_table
 *(.gcc_except_table)

.fixup
 *(.fixup)

.got1
 *(.got1)

.got2
 *(.got2)

.dynamic
 *(.dynamic)

.ctors          0x00001268       0x18
 *crtbegin.o(.ctors)
 *(EXCLUDE_FILE(*crtend.o) .ctors)
 *(SORT_BY_NAME(.ctors.*))
 *(.ctors)
                0x00001280                        . = ALIGN (0x20)
 *fill*         0x00001268       0x18 

.dtors          0x00001280        0x0
 *crtbegin.o(.dtors)
 *(EXCLUDE_FILE(*crtend.o) .dtors)
 *(SORT_BY_NAME(.dtors.*))
 *(.dtors)
                0x00001280                        . = ALIGN (0x20)

.jcr
 *(.jcr)

.got
 *(.got.plt)
 *(.got)

.sdata          0x00001280        0x0
                [!provide]                        PROVIDE (_SDA_BASE_ = .)
 *(.sdata)
 *(.sdata.*)
 *(.gnu.linkonce.s.*)
                0x00001280                        . = ALIGN (0x20)
                0x00001280                        _edata = .
                [!provide]                        PROVIDE (edata = .)

.sbss           0x00001280        0x0
                0x00001280                        __sbss_start = .
                [!provide]                        PROVIDE (__sbss_start = .)
                [!provide]                        PROVIDE (___sbss_start = .)
 *(.dynsbss)
 *(.sbss)
 *(.sbss.*)
 *(.gnu.linkonce.sb.*)
 *(.scommon)
                [!provide]                        PROVIDE (__sbss_end = .)
                [!provide]                        PROVIDE (___sbss_end = .)
                0x00001280                        . = ALIGN (0x20)
                0x00001280                        __sbss_end = .

.bss            0x00001280       0x60
                0x00001280                        __bss_start = .
                [!provide]                        PROVIDE (__bss_start = .)
 *(.dynbss)
 *(.bss)
 *(.bss.*)
 .bss._ZN3mod3owr22g_msgSearch_trampolineE
                0x00001280        0x4 OWR.o
                0x00001280                _ZN3mod3owr22g_msgSearch_trampolineE
 .bss._ZN3mod3owr31g_evt_mario_set_pose_trampolineE
                0x00001284        0x4 OWR.o
                0x00001284                _ZN3mod3owr31g_evt_mario_set_pose_trampolineE
 .bss._ZN3mod3owr30g_partySetForceMove_trampolineE
                0x00001288        0x4 OWR.o
                0x00001288                _ZN3mod3owr30g_partySetForceMove_trampolineE
 .bss._ZN3mod3owr25g_pouchGetItem_trampolineE
                0x0000128c        0x4 OWR.o
                0x0000128c                _ZN3mod3owr25g_pouchGetItem_trampolineE
 .bss._ZN3mod3owr22g_seqSetSeq_trampolineE
                0x00001290        0x4 OWR.o
                0x00001290                _ZN3mod3owr22g_seqSetSeq_trampolineE
 .bss._ZN3mod3owr19g_OSLink_trampolineE
                0x00001294        0x4 OWR.o
                0x00001294                _ZN3mod3owr19g_OSLink_trampolineE
 .bss._ZN3mod3owr6gStateE
                0x00001298        0x4 OWR.o
                0x00001298                _ZN3mod3owr6gStateE
 .bss._ZN3mod3owr5gSelfE
                0x0000129c        0x4 OWR.o
                0x0000129c                _ZN3mod3owr5gSelfE
 .bss.gState    0x000012a0        0x4 StateManager.o
                0x000012a0                gState
 .bss.g_animPoseMain_trampoline
                0x000012a4        0x4 errorHandling.o
                0x000012a4                g_animPoseMain_trampoline
 .bss.g_npcNameToPtr_trampoline
                0x000012a8        0x4 errorHandling.o
                0x000012a8                g_npcNameToPtr_trampoline
 .bss.heapCorruptionInfoPtr
                0x000012ac        0x4 errorHandling.o
                0x000012ac                heapCorruptionInfoPtr
 .bss.animPoseMainErrorInfoPtr
                0x000012b0        0x4 errorHandling.o
                0x000012b0                animPoseMainErrorInfoPtr
 .bss.npcNameToPtrErrorInfoPtr
                0x000012b4        0x4 errorHandling.o
                0x000012b4                npcNameToPtrErrorInfoPtr
 .bss.errorTextPosY
                0x000012b8        0x4 errorHandling.o
                0x000012b8                errorTextPosY
 .bss._ZN3mod27mPFN_marioStMain_trampolineE
                0x000012bc        0x4 mod.o
                0x000012bc                _ZN3mod27mPFN_marioStMain_trampolineE
 .bss._ZN3mod4gModE
                0x000012c0        0x4 mod.o
                0x000012c0                _ZN3mod4gModE
 .bss.relMgr    0x000012c4       0x10 relmgr.o
                0x000012c4                relMgr
 *(.gnu.linkonce.b.*)
 *(COMMON)
                0x000012e0                        . = ALIGN (0x20)
 *fill*         0x000012d4        0xc 
                [!provide]                        PROVIDE (__bss_end = .)
                0x000012e0                        __bss_end = .
                0x000012e0                        _end = .
                [!provide]                        PROVIDE (end = .)

.stab
 *(.stab)

.stabstr
 *(.stabstr)

.stab.excl
 *(.stab.excl)

.stab.exclstr
 *(.stab.exclstr)

.stab.index
 *(.stab.index)

.stab.indexstr
 *(.stab.indexstr)

.comment        0x00000000      0x1d4
 *(.comment)
 .comment       0x00000000       0x24 OWR.o
 .comment       0x00000024       0x24 StateManager.o
 .comment       0x00000048       0x24 common.o
 .comment       0x0000006c       0x24 errorHandling.o
 .comment       0x00000090       0x24 gamePatches.o
 .comment       0x000000b4       0x24 mod.o
 .comment       0x000000d8       0x24 printf.o
 .comment       0x000000fc       0x24 relmgr.o
 .comment       0x00000120       0x24 util.o
 .comment       0x00000144       0x24 main.o
 .comment       0x00000168       0x24 cxx.o
 .comment       0x0000018c       0x24 patch.o
 .comment       0x000001b0       0x24 rel.o

.gnu.attributes
                0x00000000       0x10
 .gnu.attributes
                0x00000000       0x10 OWR.o
 .gnu.attributes
                0x00000010       0x10 common.o
 .gnu.attributes
                0x00000020       0x10 errorHandling.o
 .gnu.attributes
                0x00000030       0x10 mod.o
 .gnu.attributes
                0x00000040       0x10 printf.o
 .gnu.attributes
                0x00000050       0x10 util.o

.group          0x00000000        0xc
 .group         0x00000000        0xc errorHandling.o

.debug
 *(.debug)

.line
 *(.line)

.debug_srcinfo
 *(.debug_srcinfo)

.debug_sfnames
 *(.debug_sfnames)

.debug_aranges  0x00000000      0x3c0
 *(.debug_aranges)
 .debug_aranges
                0x00000000       0x80 OWR.o
 .debug_aranges
                0x00000080       0x28 StateManager.o
 .debug_aranges
                0x000000a8       0x60 common.o
 .debug_aranges
                0x00000108       0x88 errorHandling.o
 .debug_aranges
                0x00000190       0x40 gamePatches.o
 .debug_aranges
                0x000001d0       0x38 mod.o
 .debug_aranges
                0x00000208       0x28 printf.o
 .debug_aranges
                0x00000230       0x40 relmgr.o
 .debug_aranges
                0x00000270       0x48 util.o
 .debug_aranges
                0x000002b8       0x30 main.o
 .debug_aranges
                0x000002e8       0x28 cxx.o
 .debug_aranges
                0x00000310       0x80 patch.o
 .debug_aranges
                0x00000390       0x30 rel.o

.debug_pubnames
 *(.debug_pubnames)

.debug_info     0x00000000    0x13833
 *(.debug_info)
 .debug_info    0x00000000     0x5e86 OWR.o
 .debug_info    0x00005e86      0x3bd StateManager.o
 .debug_info    0x00006243      0xf83 common.o
 .debug_info    0x000071c6     0x3826 errorHandling.o
 .debug_info    0x0000a9ec     0x253e gamePatches.o
 .debug_info    0x0000cf2a     0x1f87 mod.o
 .debug_info    0x0000eeb1      0x587 printf.o
 .debug_info    0x0000f438     0x1bd8 relmgr.o
 .debug_info    0x00011010      0x91d util.o
 .debug_info    0x0001192d      0xc6c main.o
 .debug_info    0x00012599      0x363 cxx.o
 .debug_info    0x000128fc      0xe1f patch.o
 .debug_info    0x0001371b      0x118 rel.o

.debug_abbrev   0x00000000     0x28da
 *(.debug_abbrev)
 .debug_abbrev  0x00000000      0x703 OWR.o
 .debug_abbrev  0x00000703      0x17e StateManager.o
 .debug_abbrev  0x00000881      0x217 common.o
 .debug_abbrev  0x00000a98      0x723 errorHandling.o
 .debug_abbrev  0x000011bb      0x343 gamePatches.o
 .debug_abbrev  0x000014fe      0x450 mod.o
 .debug_abbrev  0x0000194e      0x1d5 printf.o
 .debug_abbrev  0x00001b23      0x4c3 relmgr.o
 .debug_abbrev  0x00001fe6      0x1e3 util.o
 .debug_abbrev  0x000021c9      0x2b9 main.o
 .debug_abbrev  0x00002482      0x148 cxx.o
 .debug_abbrev  0x000025ca      0x21c patch.o
 .debug_abbrev  0x000027e6       0xf4 rel.o

.debug_line     0x00000000     0x41b0
 *(.debug_line)
 .debug_line    0x00000000      0xf75 OWR.o
 .debug_line    0x00000f75      0x1c2 StateManager.o
 .debug_line    0x00001137      0x351 common.o
 .debug_line    0x00001488      0xd37 errorHandling.o
 .debug_line    0x000021bf      0x49f gamePatches.o
 .debug_line    0x0000265e      0x468 mod.o
 .debug_line    0x00002ac6      0x24f printf.o
 .debug_line    0x00002d15      0x64c relmgr.o
 .debug_line    0x00003361      0x386 util.o
 .debug_line    0x000036e7      0x3b2 main.o
 .debug_line    0x00003a99      0x1ad cxx.o
 .debug_line    0x00003c46      0x41f patch.o
 .debug_line    0x00004065      0x14b rel.o

.debug_frame
 *(.debug_frame)

.debug_str      0x00000000     0xf2ea
 *(.debug_str)
 .debug_str     0x00000000     0x518c OWR.o
 .debug_str     0x0000518c      0x3bf StateManager.o
 .debug_str     0x0000554b     0x13f8 common.o
 .debug_str     0x00006943     0x2082 errorHandling.o
 .debug_str     0x000089c5     0x1fa4 gamePatches.o
 .debug_str     0x0000a969     0x16b5 mod.o
 .debug_str     0x0000c01e      0x484 printf.o
 .debug_str     0x0000c4a2      0xe75 relmgr.o
 .debug_str     0x0000d317      0x63b util.o
 .debug_str     0x0000d952      0xd19 main.o
 .debug_str     0x0000e66b      0x384 cxx.o
 .debug_str     0x0000e9ef      0x73e patch.o
 .debug_str     0x0000f12d      0x1bd rel.o

.debug_loc
 *(.debug_loc)

.debug_macinfo
 *(.debug_macinfo)

.debug_weaknames
 *(.debug_weaknames)

.debug_funcnames
 *(.debug_funcnames)

.debug_typenames
 *(.debug_typenames)

.debug_varnames
 *(.debug_varnames)
                0x00000000                        __isIPL = 0x0
                0x000212e0                        __stack_addr = ((((__bss_start + SIZEOF (.bss)) + 0x20000) + 0x7) & 0xfffffffffffffff8)
                0x000012e0                        __stack_end = (__bss_start + SIZEOF (.bss))
                0x000252e0                        __intrstack_addr = (__stack_addr + 0x4000)
                0x000212e0                        __intrstack_end = __stack_addr
                0x000252e0                        __Arena1Lo = ((__intrstack_addr + 0x1f) & 0xffffffffffffffe0)
                0x817feff0                        __Arena1Hi = 0x817feff0
                0x817ff000                        __gxregs = ((__Arena1Hi + 0x1f) & 0xffffffffffffffe0)
                [!provide]                        PROVIDE (__stack = 0x817feff0)
                [!provide]                        PROVIDE (__isIPL = __isIPL)
                [!provide]                        PROVIDE (__stack_addr = __stack_addr)
                [!provide]                        PROVIDE (__stack_end = __stack_end)
                [!provide]                        PROVIDE (__intrstack_addr = __intrstack_addr)
                [!provide]                        PROVIDE (__intrstack_end = __intrstack_end)
                [!provide]                        PROVIDE (__Arena1Lo = __Arena1Lo)
                [!provide]                        PROVIDE (__Arena1Hi = __Arena1Hi)
                [!provide]                        PROVIDE (__gxregs = __gxregs)
LOAD H:/GhidraProjects/TTYDAP/TTYDAP/rel/all_source/cxx.ld
                0x00001268                        _ctors_start = ADDR (.ctors)
                0x00001280                        _ctors_end = (_ctors_start + SIZEOF (.ctors))
                0x00001280                        _dtors_start = ADDR (.dtors)
                0x00001280                        _dtors_end = (_dtors_start + SIZEOF (.dtors))
LOAD OWR.o
LOAD StateManager.o
LOAD common.o
LOAD errorHandling.o
LOAD gamePatches.o
LOAD mod.o
LOAD printf.o
LOAD relmgr.o
LOAD util.o
LOAD main.o
LOAD cxx.o
LOAD patch.o
LOAD rel.o
LOAD CrashScreenDecrementYPos.o
LOAD FixBlooperCrash1.o
LOAD FixBlooperCrash2.o
LOAD PreventDiaryTextboxSelection.o
LOAD asm_main.o
LOAD restfpr_x.o
LOAD restgpr_x.o
LOAD patch_ih.o
OUTPUT(H:/GhidraProjects/TTYDAP/TTYDAP/rel/mod.us.elf elf32-powerpc)

.debug_loclists
                0x00000000     0x1fdd
 .debug_loclists
                0x00000000      0x843 OWR.o
 .debug_loclists
                0x00000843       0x17 StateManager.o
 .debug_loclists
                0x0000085a      0x130 common.o
 .debug_loclists
                0x0000098a      0x858 errorHandling.o
 .debug_loclists
                0x000011e2      0x151 gamePatches.o
 .debug_loclists
                0x00001333       0x46 mod.o
 .debug_loclists
                0x00001379      0x122 printf.o
 .debug_loclists
                0x0000149b      0x230 relmgr.o
 .debug_loclists
                0x000016cb      0x157 util.o
 .debug_loclists
                0x00001822      0x1da main.o
 .debug_loclists
                0x000019fc       0x54 cxx.o
 .debug_loclists
                0x00001a50      0x540 patch.o
 .debug_loclists
                0x00001f90       0x4d rel.o

.debug_rnglists
                0x00000000      0x512
 .debug_rnglists
                0x00000000      0x151 OWR.o
 .debug_rnglists
                0x00000151       0x19 StateManager.o
 .debug_rnglists
                0x0000016a       0x4f common.o
 .debug_rnglists
                0x000001b9      0x18a errorHandling.o
 .debug_rnglists
                0x00000343       0x2c gamePatches.o
 .debug_rnglists
                0x0000036f       0x25 mod.o
 .debug_rnglists
                0x00000394       0x19 printf.o
 .debug_rnglists
                0x000003ad       0x38 relmgr.o
 .debug_rnglists
                0x000003e5       0x31 util.o
 .debug_rnglists
                0x00000416       0x48 main.o
 .debug_rnglists
                0x0000045e       0x19 cxx.o
 .debug_rnglists
                0x00000477       0x5b patch.o
 .debug_rnglists
                0x000004d2       0x40 rel.o
